target datalayout = "e-m:e-p270:32:32-p271:32:32-p272:64:64-i64:64-i128:128-f80:128-n8:16:32:64-S128"
target triple = "x86_64-unknown-linux-gnu"

%"class.icu_75::UObject" = type { ptr }
%"class.icu_75::RegexMatcher" = type { %"class.icu_75::UObject", ptr, ptr, ptr, ptr, ptr, i64, i32, i64, i64, i64, i64, i64, i64, i64, i64, i8, i8, i8, i64, i64, i64, i64, i8, i8, ptr, ptr, ptr, [8 x i64], i32, i32, i32, i32, ptr, ptr, ptr, ptr, i8, i8, i32, ptr, ptr }

; Function Attrs: mustprogress nounwind uwtable
define internal noundef signext i8 @_ZL9U_SUCCESS10UErrorCode(i32 noundef %code) #0 {
entry:
  %code.addr = alloca i32, align 4
  store i32 %code, ptr %code.addr, align 4
  %0 = load i32, ptr %code.addr, align 4
  %cmp = icmp sle i32 %0, 0
  %conv = zext i1 %cmp to i8
  ret i8 %conv
}

; Function Attrs: mustprogress nounwind uwtable
define internal noundef signext i8 @_ZL9U_FAILURE10UErrorCode(i32 noundef %code) #0 {
entry:
  %code.addr = alloca i32, align 4
  store i32 %code, ptr %code.addr, align 4
  %0 = load i32, ptr %code.addr, align 4
  %cmp = icmp sgt i32 %0, 0
  %conv = zext i1 %cmp to i8
  ret i8 %conv
}

; Function Attrs: mustprogress uwtable
define noundef i32 @_ZNK6icu_7512RegexPattern5splitERKNS_13UnicodeStringEPS1_iR10UErrorCode(ptr noundef nonnull align 8 dereferenceable(200) %this, ptr noundef nonnull align 8 dereferenceable(64) %input, ptr noundef %dest, i32 noundef %destCapacity, ptr noundef nonnull align 4 dereferenceable(4) %status) unnamed_addr #1 align 2 personality ptr @__gxx_personality_v0 {
entry:
  %retval = alloca i32, align 4
  %this.addr = alloca ptr, align 8
  %input.addr = alloca ptr, align 8
  %dest.addr = alloca ptr, align 8
  %destCapacity.addr = alloca i32, align 4
  %status.addr = alloca ptr, align 8
  %m = alloca %"class.icu_75::RegexMatcher", align 8
  %r = alloca i32, align 4
  %exn.slot = alloca ptr, align 8
  %ehselector.slot = alloca i32, align 4
  store ptr %this, ptr %this.addr, align 8
  store ptr %input, ptr %input.addr, align 8
  store ptr %dest, ptr %dest.addr, align 8
  store i32 %destCapacity, ptr %destCapacity.addr, align 4
  store ptr %status, ptr %status.addr, align 8
  %this1 = load ptr, ptr %this.addr, align 8
  %0 = load ptr, ptr %status.addr, align 8
  %1 = load i32, ptr %0, align 4
  %call = call noundef signext i8 @_ZL9U_FAILURE10UErrorCode(i32 noundef %1)
  %tobool = icmp ne i8 %call, 0
  br i1 %tobool, label %if.then, label %if.end

if.then:                                          ; preds = %entry
  store i32 0, ptr %retval, align 4
  br label %return

if.end:                                           ; preds = %entry
  call void @_ZN6icu_7512RegexMatcherC1EPKNS_12RegexPatternE(ptr noundef nonnull align 8 dereferenceable(336) %m, ptr noundef %this1)
  store i32 0, ptr %r, align 4
  %fDeferredStatus = getelementptr inbounds %"class.icu_75::RegexMatcher", ptr %m, i32 0, i32 39
  %2 = load i32, ptr %fDeferredStatus, align 4
  %call2 = invoke noundef signext i8 @_ZL9U_SUCCESS10UErrorCode(i32 noundef %2)
          to label %invoke.cont unwind label %lpad

invoke.cont:                                      ; preds = %if.end
  %tobool3 = icmp ne i8 %call2, 0
  br i1 %tobool3, label %if.then4, label %if.end7

if.then4:                                         ; preds = %invoke.cont
  %3 = load ptr, ptr %input.addr, align 8
  %4 = load ptr, ptr %dest.addr, align 8
  %5 = load i32, ptr %destCapacity.addr, align 4
  %6 = load ptr, ptr %status.addr, align 8
  %call6 = invoke noundef i32 @_ZN6icu_7512RegexMatcher5splitERKNS_13UnicodeStringEPS1_iR10UErrorCode(ptr noundef nonnull align 8 dereferenceable(336) %m, ptr noundef nonnull align 8 dereferenceable(64) %3, ptr noundef %4, i32 noundef %5, ptr noundef nonnull align 4 dereferenceable(4) %6)
          to label %invoke.cont5 unwind label %lpad

invoke.cont5:                                     ; preds = %if.then4
  store i32 %call6, ptr %r, align 4
  br label %if.end7

lpad:                                             ; preds = %if.then4, %if.end
  %7 = landingpad { ptr, i32 }
          cleanup
  %8 = extractvalue { ptr, i32 } %7, 0
  store ptr %8, ptr %exn.slot, align 8
  %9 = extractvalue { ptr, i32 } %7, 1
  store i32 %9, ptr %ehselector.slot, align 4
  call void @_ZN6icu_7512RegexMatcherD1Ev(ptr noundef nonnull align 8 dereferenceable(336) %m) #9
  br label %eh.resume

if.end7:                                          ; preds = %invoke.cont5, %invoke.cont
  %10 = load i32, ptr %r, align 4
  store i32 %10, ptr %retval, align 4
  call void @_ZN6icu_7512RegexMatcherD1Ev(ptr noundef nonnull align 8 dereferenceable(336) %m) #9
  br label %return

return:                                           ; preds = %if.end7, %if.then
  %11 = load i32, ptr %retval, align 4
  ret i32 %11

eh.resume:                                        ; preds = %lpad
  %exn = load ptr, ptr %exn.slot, align 8
  %sel = load i32, ptr %ehselector.slot, align 4
  %lpad.val = insertvalue { ptr, i32 } poison, ptr %exn, 0
  %lpad.val8 = insertvalue { ptr, i32 } %lpad.val, i32 %sel, 1
  resume { ptr, i32 } %lpad.val8
}